target datalayout = "e-m:e-p270:32:32-p271:32:32-p272:64:64-i64:64-i128:128-f80:128-n8:16:32:64-S128"
target triple = "x86_64-pc-linux-gnu"

%struct.FT_DriverRec_ = type { %struct.FT_ModuleRec_, ptr, %struct.FT_ListRec_, ptr }
%struct.FT_ModuleRec_ = type { ptr, ptr, ptr }
%struct.FT_ListRec_ = type { ptr, ptr }
%struct.FT_FaceRec_ = type { i64, i64, i64, i64, i64, ptr, ptr, i32, ptr, i32, ptr, %struct.FT_Generic_, %struct.FT_BBox_, i16, i16, i16, i16, i16, i16, i16, i16, ptr, ptr, ptr, ptr, ptr, ptr, %struct.FT_ListRec_, %struct.FT_Generic_, ptr, ptr }
%struct.FT_BBox_ = type { i64, i64, i64, i64 }
%struct.FT_Generic_ = type { ptr, ptr }
%struct.CID_FaceRec_ = type { %struct.FT_FaceRec_, ptr, ptr, %struct.CID_FaceInfoRec_, %struct.PS_FontExtraRec_, ptr, ptr, ptr, ptr }
%struct.CID_FaceInfoRec_ = type { ptr, i64, i32, ptr, ptr, i32, %struct.PS_FontInfoRec_, %struct.FT_BBox_, i64, i32, [16 x i64], i64, i32, i32, i64, i32, ptr, i64 }
%struct.PS_FontInfoRec_ = type { ptr, ptr, ptr, ptr, ptr, i64, i8, i16, i16 }
%struct.PS_FontExtraRec_ = type { i16 }
%struct.FT_SizeRec_ = type { ptr, %struct.FT_Generic_, %struct.FT_Size_Metrics_, ptr }
%struct.FT_Size_Metrics_ = type { i16, i16, i64, i64, i64, i64, i64, i64 }
%struct.PSH_Globals_FuncsRec_ = type { ptr, ptr, ptr }
%struct.FT_Size_InternalRec_ = type { ptr, i32, %struct.FT_Size_Metrics_ }
%struct.PSHinter_Interface_ = type { ptr, ptr, ptr }
%struct.CID_SizeRec_ = type { %struct.FT_SizeRec_, i8 }

@.str.8 = private unnamed_addr constant [9 x i8] c"pshinter\00", align 1

; Function Attrs: nounwind uwtable
define internal ptr @cid_size_get_globals_funcs(ptr noundef %0) #0 {
  %2 = alloca ptr, align 8
  %3 = alloca ptr, align 8
  %4 = alloca ptr, align 8
  %5 = alloca ptr, align 8
  store ptr %0, ptr %2, align 8
  %6 = load ptr, ptr %2, align 8
  %7 = getelementptr inbounds %struct.CID_SizeRec_, ptr %6, i32 0, i32 0
  %8 = getelementptr inbounds %struct.FT_SizeRec_, ptr %7, i32 0, i32 0
  %9 = load ptr, ptr %8, align 8
  store ptr %9, ptr %3, align 8
  %10 = load ptr, ptr %3, align 8
  %11 = getelementptr inbounds %struct.CID_FaceRec_, ptr %10, i32 0, i32 6
  %12 = load ptr, ptr %11, align 8
  store ptr %12, ptr %4, align 8
  %13 = load ptr, ptr %2, align 8
  %14 = getelementptr inbounds %struct.CID_SizeRec_, ptr %13, i32 0, i32 0
  %15 = getelementptr inbounds %struct.FT_SizeRec_, ptr %14, i32 0, i32 0
  %16 = load ptr, ptr %15, align 8
  %17 = getelementptr inbounds %struct.FT_FaceRec_, ptr %16, i32 0, i32 24
  %18 = load ptr, ptr %17, align 8
  %19 = getelementptr inbounds %struct.FT_DriverRec_, ptr %18, i32 0, i32 0
  %20 = getelementptr inbounds %struct.FT_ModuleRec_, ptr %19, i32 0, i32 1
  %21 = load ptr, ptr %20, align 8
  %22 = call ptr @FT_Get_Module(ptr noundef %21, ptr noundef @.str.8)
  store ptr %22, ptr %5, align 8
  %23 = load ptr, ptr %5, align 8
  %24 = icmp ne ptr %23, null
  br i1 %24, label %25, label %39

25:                                               ; preds = %1
  %26 = load ptr, ptr %4, align 8
  %27 = icmp ne ptr %26, null
  br i1 %27, label %28, label %39

28:                                               ; preds = %25
  %29 = load ptr, ptr %4, align 8
  %30 = getelementptr inbounds %struct.PSHinter_Interface_, ptr %29, i32 0, i32 0
  %31 = load ptr, ptr %30, align 8
  %32 = icmp ne ptr %31, null
  br i1 %32, label %33, label %39

33:                                               ; preds = %28
  %34 = load ptr, ptr %4, align 8
  %35 = getelementptr inbounds %struct.PSHinter_Interface_, ptr %34, i32 0, i32 0
  %36 = load ptr, ptr %35, align 8
  %37 = load ptr, ptr %5, align 8
  %38 = call ptr %36(ptr noundef %37)
  br label %40

39:                                               ; preds = %28, %25, %1
  br label %40

40:                                               ; preds = %39, %33
  %41 = phi ptr [ %38, %33 ], [ null, %39 ]
  ret ptr %41
}

; Function Attrs: nounwind uwtable
define internal i32 @cid_size_request(ptr noundef %0, ptr noundef %1) #0 {
  %3 = alloca ptr, align 8
  %4 = alloca ptr, align 8
  %5 = alloca i32, align 4
  %6 = alloca ptr, align 8
  store ptr %0, ptr %3, align 8
  store ptr %1, ptr %4, align 8
  %7 = load ptr, ptr %3, align 8
  %8 = getelementptr inbounds %struct.FT_SizeRec_, ptr %7, i32 0, i32 0
  %9 = load ptr, ptr %8, align 8
  %10 = load ptr, ptr %4, align 8
  %11 = call i32 @FT_Request_Metrics(ptr noundef %9, ptr noundef %10)
  store i32 %11, ptr %5, align 4
  %12 = load i32, ptr %5, align 4
  %13 = icmp ne i32 %12, 0
  br i1 %13, label %14, label %15

14:                                               ; preds = %2
  br label %38

15:                                               ; preds = %2
  %16 = load ptr, ptr %3, align 8
  %17 = call ptr @cid_size_get_globals_funcs(ptr noundef %16)
  store ptr %17, ptr %6, align 8
  %18 = load ptr, ptr %6, align 8
  %19 = icmp ne ptr %18, null
  br i1 %19, label %20, label %37

20:                                               ; preds = %15
  %21 = load ptr, ptr %6, align 8
  %22 = getelementptr inbounds %struct.PSH_Globals_FuncsRec_, ptr %21, i32 0, i32 1
  %23 = load ptr, ptr %22, align 8
  %24 = load ptr, ptr %3, align 8
  %25 = getelementptr inbounds %struct.FT_SizeRec_, ptr %24, i32 0, i32 3
  %26 = load ptr, ptr %25, align 8
  %27 = getelementptr inbounds %struct.FT_Size_InternalRec_, ptr %26, i32 0, i32 0
  %28 = load ptr, ptr %27, align 8
  %29 = load ptr, ptr %3, align 8
  %30 = getelementptr inbounds %struct.FT_SizeRec_, ptr %29, i32 0, i32 2
  %31 = getelementptr inbounds %struct.FT_Size_Metrics_, ptr %30, i32 0, i32 2
  %32 = load i64, ptr %31, align 8
  %33 = load ptr, ptr %3, align 8
  %34 = getelementptr inbounds %struct.FT_SizeRec_, ptr %33, i32 0, i32 2
  %35 = getelementptr inbounds %struct.FT_Size_Metrics_, ptr %34, i32 0, i32 3
  %36 = load i64, ptr %35, align 8
  call void %23(ptr noundef %28, i64 noundef %32, i64 noundef %36, i64 noundef 0, i64 noundef 0)
  br label %37

37:                                               ; preds = %20, %15
  br label %38

38:                                               ; preds = %37, %14
  %39 = load i32, ptr %5, align 4
  ret i32 %39
}