; Function Attrs: nounwind uwtable
define internal i32 @cid_size_request(ptr noundef readonly captures(none) %0, ptr noundef %1) #2 {
  %3 = load ptr, ptr %0, align 8
  %4 = tail call i32 @FT_Request_Metrics(ptr noundef %3, ptr noundef %1) #13
  %.not = icmp eq i32 %4, 0
  br i1 %.not, label %5, label %cid_size_get_globals_funcs.exit.thread

5:                                                ; preds = %2
  %.val = load ptr, ptr %0, align 8
  %6 = getelementptr i8, ptr %.val, i64 176
  %.val.val = load ptr, ptr %6, align 8
  %7 = getelementptr i8, ptr %.val, i64 608
  %.val.val10 = load ptr, ptr %7, align 8
  %8 = getelementptr i8, ptr %.val.val, i64 8
  %.val.val.val = load ptr, ptr %8, align 8
  %9 = tail call ptr @FT_Get_Module(ptr noundef %.val.val.val, ptr noundef nonnull @.str.8) #13
  %10 = icmp ne ptr %9, null
  %11 = icmp ne ptr %.val.val10, null
  %or.cond.i = select i1 %10, i1 %11, i1 false
  br i1 %or.cond.i, label %12, label %cid_size_get_globals_funcs.exit.thread

12:                                               ; preds = %5
  %13 = load ptr, ptr %.val.val10, align 8
  %.not.i = icmp eq ptr %13, null
  br i1 %.not.i, label %cid_size_get_globals_funcs.exit.thread, label %cid_size_get_globals_funcs.exit

cid_size_get_globals_funcs.exit:                  ; preds = %12
  %14 = tail call ptr %13(ptr noundef nonnull %9) #13
  %.not9 = icmp eq ptr %14, null
  br i1 %.not9, label %cid_size_get_globals_funcs.exit.thread, label %15

15:                                               ; preds = %cid_size_get_globals_funcs.exit
  %16 = getelementptr inbounds nuw i8, ptr %14, i64 8
  %17 = load ptr, ptr %16, align 8
  %18 = getelementptr inbounds nuw i8, ptr %0, i64 80
  %19 = load ptr, ptr %18, align 8
  %20 = load ptr, ptr %19, align 8
  %21 = getelementptr inbounds nuw i8, ptr %0, i64 32
  %22 = load i64, ptr %21, align 8
  %23 = getelementptr inbounds nuw i8, ptr %0, i64 40
  %24 = load i64, ptr %23, align 8
  tail call void %17(ptr noundef %20, i64 noundef %22, i64 noundef %24, i64 noundef 0, i64 noundef 0) #13
  br label %cid_size_get_globals_funcs.exit.thread

cid_size_get_globals_funcs.exit.thread:           ; preds = %5, %12, %cid_size_get_globals_funcs.exit, %15, %2
  ret i32 %4
}